; Function Attrs: mustprogress nounwind uwtable
define dso_local void @_ZN4llvm14lowertypetests16ByteArrayBuilder8allocateERKSt3setImSt4lessImESaImEEmRmRh(ptr noundef nonnull align 8 dereferenceable(88) %0, ptr noundef nonnull readonly align 8 dereferenceable(48) %1, i64 noundef %2, ptr noundef nonnull align 8 captures(none) dereferenceable(8) %3, ptr noundef nonnull align 1 captures(none) dereferenceable(1) %4) local_unnamed_addr #0 align 2 {
  %6 = getelementptr inbounds nuw i8, ptr %0, i64 24
  br label %7

7:                                                ; preds = %5, %7
  %indvars.iv = phi i64 [ 1, %5 ], [ %indvars.iv.next, %7 ]
  %.028 = phi i32 [ 0, %5 ], [ %spec.select, %7 ]
  %8 = getelementptr inbounds nuw [8 x i64], ptr %6, i64 0, i64 %indvars.iv
  %9 = load i64, ptr %8, align 8
  %10 = zext i32 %.028 to i64
  %11 = getelementptr inbounds nuw [8 x i64], ptr %6, i64 0, i64 %10
  %12 = load i64, ptr %11, align 8
  %13 = icmp ult i64 %9, %12
  %14 = trunc nuw nsw i64 %indvars.iv to i32
  %spec.select = select i1 %13, i32 %14, i32 %.028
  %indvars.iv.next = add nuw nsw i64 %indvars.iv, 1
  %.not = icmp eq i64 %indvars.iv.next, 8
  br i1 %.not, label %15, label %7, !llvm.loop !7

15:                                               ; preds = %7
  %16 = zext i32 %spec.select to i64
  %17 = getelementptr inbounds nuw [8 x i64], ptr %6, i64 0, i64 %16
  %18 = load i64, ptr %17, align 8
  store i64 %18, ptr %3, align 8
  %19 = add i64 %18, %2
  %20 = and i64 %19, 4294967295
  store i64 %20, ptr %17, align 8
  %21 = getelementptr inbounds nuw i8, ptr %0, i64 8
  %22 = load ptr, ptr %21, align 8
  %23 = load ptr, ptr %0, align 8
  %24 = ptrtoint ptr %22 to i64
  %25 = ptrtoint ptr %23 to i64
  %26 = sub i64 %24, %25
  %27 = icmp ult i64 %26, %20
  br i1 %27, label %28, label %29

28:                                               ; preds = %15
  tail call void @_ZNSt6vectorIhSaIhEE6resizeEm(ptr noundef nonnull align 8 dereferenceable(24) %0, i64 noundef %20)
  br label %29

29:                                               ; preds = %28, %15
  %30 = shl nuw i32 1, %spec.select
  %31 = trunc i32 %30 to i8
  store i8 %31, ptr %4, align 1
  %32 = getelementptr inbounds nuw i8, ptr %1, i64 24
  %33 = load ptr, ptr %32, align 8
  %34 = getelementptr inbounds nuw i8, ptr %1, i64 8
  %.not2629 = icmp eq ptr %33, %34
  br i1 %.not2629, label %._crit_edge, label %.lr.ph

.lr.ph:                                           ; preds = %29, %.lr.ph
  %.sroa.023.030 = phi ptr [ %44, %.lr.ph ], [ %33, %29 ]
  %35 = getelementptr inbounds nuw i8, ptr %.sroa.023.030, i64 32
  %36 = load i64, ptr %35, align 8
  %37 = load i8, ptr %4, align 1
  %38 = load i64, ptr %3, align 8
  %39 = load ptr, ptr %0, align 8
  %40 = getelementptr i8, ptr %39, i64 %38
  %41 = getelementptr i8, ptr %40, i64 %36
  %42 = load i8, ptr %41, align 1
  %43 = or i8 %42, %37
  store i8 %43, ptr %41, align 1
  %44 = tail call noundef ptr @_ZSt18_Rb_tree_incrementPKSt18_Rb_tree_node_base(ptr noundef %.sroa.023.030) #24
  %.not26 = icmp eq ptr %44, %34
  br i1 %.not26, label %._crit_edge, label %.lr.ph

._crit_edge:                                      ; preds = %.lr.ph, %29
  ret void
}